; Function Attrs: mustprogress uwtable
define void @_ZN11LayerDialog37updateRenderingDataAccordingToActionsEiRK5QListIP17MLRenderingActionE(ptr noundef nonnull align 8 dereferenceable(256) %0, i32 noundef %1, ptr noundef nonnull align 8 dereferenceable(8) %2) local_unnamed_addr #9 align 2 {
  %4 = getelementptr inbounds i8, ptr %0, i64 56
  %5 = load ptr, ptr %4, align 8
  %6 = icmp eq ptr %5, null
  br i1 %6, label %.critedge2, label %7

7:                                                ; preds = %3
  %8 = getelementptr inbounds i8, ptr %0, i64 240
  %9 = load ptr, ptr %8, align 8
  %10 = tail call noundef zeroext i1 @_ZNK15QAbstractButton9isCheckedEv(ptr noundef nonnull align 8 dereferenceable(48) %9)
  br i1 %10, label %13, label %11

11:                                               ; preds = %7
  %12 = load ptr, ptr %4, align 8
  tail call void @_ZN10MainWindow37updateRenderingDataAccordingToActionsEiRK5QListIP17MLRenderingActionE(ptr noundef nonnull align 8 dereferenceable(1376) %12, i32 noundef %1, ptr noundef nonnull align 8 dereferenceable(8) %2)
  br label %.critedge2

13:                                               ; preds = %7
  %14 = tail call noundef ptr @_ZNK7QObject6senderEv(ptr noundef nonnull align 8 dereferenceable(16) %0)
  %15 = tail call noundef ptr @_ZNK11QMetaObject4castEP7QObject(ptr noundef nonnull align 8 dereferenceable(48) @_ZN22MLRenderingSideToolbar16staticMetaObjectE, ptr noundef %14)
  %16 = icmp eq ptr %15, null
  br i1 %16, label %.critedge, label %17

17:                                               ; preds = %13
  %18 = tail call i32 @_ZN15QGuiApplication22queryKeyboardModifiersEv()
  %19 = and i32 %18, 67108864
  %.not = icmp eq i32 %19, 0
  br i1 %.not, label %.critedge2, label %.critedge

.critedge:                                        ; preds = %13, %17
  %20 = load ptr, ptr %4, align 8
  tail call void @_ZN10MainWindow55updateRenderingDataAccordingToActionsToAllVisibleLayersERK5QListIP17MLRenderingActionE(ptr noundef nonnull align 8 dereferenceable(1376) %20, ptr noundef nonnull align 8 dereferenceable(8) %2)
  br label %.critedge2

.critedge2:                                       ; preds = %17, %.critedge, %3, %11
  ret void
}